# nm libaint.dylib | grep ' T ' | grep -v 'aint4impl' | awk '{ print $NF }' | sort
__ZN4alitli2_AEPKc
__ZN4astd4aint10powertowerERKS0_
__ZN4astd4aint5powerERKS0_
__ZN4astd4aint9factorialEv
__ZN4astd4aintC1EOS0_
__ZN4astd4aintC1EPKc
__ZN4astd4aintC1ERKNSt3__112basic_stringIcNS1_11char_traitsIcEENS1_9allocatorIcEEEE
__ZN4astd4aintC1ERKS0_
__ZN4astd4aintC1Ei
__ZN4astd4aintC1Ej
__ZN4astd4aintC1El
__ZN4astd4aintC1Em
__ZN4astd4aintC1Ev
__ZN4astd4aintC1Ex
__ZN4astd4aintC1Ey
__ZN4astd4aintC2EOS0_
__ZN4astd4aintC2EPKc
__ZN4astd4aintC2ERKNSt3__112basic_stringIcNS1_11char_traitsIcEENS1_9allocatorIcEEEE
__ZN4astd4aintC2ERKS0_
__ZN4astd4aintC2Ei
__ZN4astd4aintC2Ej
__ZN4astd4aintC2El
__ZN4astd4aintC2Em
__ZN4astd4aintC2Ev
__ZN4astd4aintC2Ex
__ZN4astd4aintC2Ey
__ZN4astd4aintD1Ev
__ZN4astd4aintD2Ev
__ZN4astd4aintaSEOS0_
__ZN4astd4aintaSEPKc
__ZN4astd4aintaSERKNSt3__112basic_stringIcNS1_11char_traitsIcEENS1_9allocatorIcEEEE
__ZN4astd4aintaSERKS0_
__ZN4astd4aintaSEi
__ZN4astd4aintaSEj
__ZN4astd4aintaSEl
__ZN4astd4aintaSEm
__ZN4astd4aintaSEx
__ZN4astd4aintaSEy
__ZN4astd4aintdVEPKc
__ZN4astd4aintdVERKNSt3__112basic_stringIcNS1_11char_traitsIcEENS1_9allocatorIcEEEE
__ZN4astd4aintdVERKS0_
__ZN4astd4aintdVEi
__ZN4astd4aintdVEj
__ZN4astd4aintdVEl
__ZN4astd4aintdVEm
__ZN4astd4aintdVEx
__ZN4astd4aintdVEy
__ZN4astd4aintmIEPKc
__ZN4astd4aintmIERKNSt3__112basic_stringIcNS1_11char_traitsIcEENS1_9allocatorIcEEEE
__ZN4astd4aintmIERKS0_
__ZN4astd4aintmIEi
__ZN4astd4aintmIEj
__ZN4astd4aintmIEl
__ZN4astd4aintmIEm
__ZN4astd4aintmIEx
__ZN4astd4aintmIEy
__ZN4astd4aintmLEPKc
__ZN4astd4aintmLERKNSt3__112basic_stringIcNS1_11char_traitsIcEENS1_9allocatorIcEEEE
__ZN4astd4aintmLERKS0_
__ZN4astd4aintmLEi
__ZN4astd4aintmLEj
__ZN4astd4aintmLEl
__ZN4astd4aintmLEm
__ZN4astd4aintmLEx
__ZN4astd4aintmLEy
__ZN4astd4aintmmEi
__ZN4astd4aintmmEv
__ZN4astd4aintngEv
__ZN4astd4aintpLEPKc
__ZN4astd4aintpLERKNSt3__112basic_stringIcNS1_11char_traitsIcEENS1_9allocatorIcEEEE
__ZN4astd4aintpLERKS0_
__ZN4astd4aintpLEi
__ZN4astd4aintpLEj
__ZN4astd4aintpLEl
__ZN4astd4aintpLEm
__ZN4astd4aintpLEx
__ZN4astd4aintpLEy
__ZN4astd4aintppEi
__ZN4astd4aintppEv
__ZN4astd4aintpsEv
__ZN4astd4aintrMEPKc
__ZN4astd4aintrMERKNSt3__112basic_stringIcNS1_11char_traitsIcEENS1_9allocatorIcEEEE
__ZN4astd4aintrMERKS0_
__ZN4astd4aintrMEi
__ZN4astd4aintrMEj
__ZN4astd4aintrMEl
__ZN4astd4aintrMEm
__ZN4astd4aintrMEx
__ZN4astd4aintrMEy
__ZN4astddvEiRKNS_4aintE
__ZN4astddvEjRKNS_4aintE
__ZN4astddvElRKNS_4aintE
__ZN4astddvEmRKNS_4aintE
__ZN4astddvExRKNS_4aintE
__ZN4astddvEyRKNS_4aintE
__ZN4astdeqEiRKNS_4aintE
__ZN4astdeqEjRKNS_4aintE
__ZN4astdeqElRKNS_4aintE
__ZN4astdeqEmRKNS_4aintE
__ZN4astdeqExRKNS_4aintE
__ZN4astdeqEyRKNS_4aintE
__ZN4astdgeEiRKNS_4aintE
__ZN4astdgeEjRKNS_4aintE
__ZN4astdgeElRKNS_4aintE
__ZN4astdgeEmRKNS_4aintE
__ZN4astdgeExRKNS_4aintE
__ZN4astdgeEyRKNS_4aintE
__ZN4astdgtEiRKNS_4aintE
__ZN4astdgtEjRKNS_4aintE
__ZN4astdgtElRKNS_4aintE
__ZN4astdgtEmRKNS_4aintE
__ZN4astdgtExRKNS_4aintE
__ZN4astdgtEyRKNS_4aintE
__ZN4astdleEiRKNS_4aintE
__ZN4astdleEjRKNS_4aintE
__ZN4astdleElRKNS_4aintE
__ZN4astdleEmRKNS_4aintE
__ZN4astdleExRKNS_4aintE
__ZN4astdleEyRKNS_4aintE
__ZN4astdlsERNSt3__113basic_ostreamIcNS0_11char_traitsIcEEEERKNS_4aintE
__ZN4astdltEiRKNS_4aintE
__ZN4astdltEjRKNS_4aintE
__ZN4astdltElRKNS_4aintE
__ZN4astdltEmRKNS_4aintE
__ZN4astdltExRKNS_4aintE
__ZN4astdltEyRKNS_4aintE
__ZN4astdmiEiRKNS_4aintE
__ZN4astdmiEjRKNS_4aintE
__ZN4astdmiElRKNS_4aintE
__ZN4astdmiEmRKNS_4aintE
__ZN4astdmiExRKNS_4aintE
__ZN4astdmiEyRKNS_4aintE
__ZN4astdmlEiRKNS_4aintE
__ZN4astdmlEjRKNS_4aintE
__ZN4astdmlElRKNS_4aintE
__ZN4astdmlEmRKNS_4aintE
__ZN4astdmlExRKNS_4aintE
__ZN4astdmlEyRKNS_4aintE
__ZN4astdneEiRKNS_4aintE
__ZN4astdneEjRKNS_4aintE
__ZN4astdneElRKNS_4aintE
__ZN4astdneEmRKNS_4aintE
__ZN4astdneExRKNS_4aintE
__ZN4astdneEyRKNS_4aintE
__ZN4astdplEiRKNS_4aintE
__ZN4astdplEjRKNS_4aintE
__ZN4astdplElRKNS_4aintE
__ZN4astdplEmRKNS_4aintE
__ZN4astdplExRKNS_4aintE
__ZN4astdplEyRKNS_4aintE
__ZN4astdrmEiRKNS_4aintE
__ZN4astdrmEjRKNS_4aintE
__ZN4astdrmElRKNS_4aintE
__ZN4astdrmEmRKNS_4aintE
__ZN4astdrmExRKNS_4aintE
__ZN4astdrmEyRKNS_4aintE
__ZNK4astd4aint3divERKS0_
__ZNK4astd4aint4dumpEv
__ZNK4astd4aint4evenEv
__ZNK4astd4aint6digitsEv
__ZNK4astd4aintdvERKS0_
__ZNK4astd4aintdvEi
__ZNK4astd4aintdvEj
__ZNK4astd4aintdvEl
__ZNK4astd4aintdvEm
__ZNK4astd4aintdvEx
__ZNK4astd4aintdvEy
__ZNK4astd4ainteqERKS0_
__ZNK4astd4ainteqEi
__ZNK4astd4ainteqEj
__ZNK4astd4ainteqEl
__ZNK4astd4ainteqEm
__ZNK4astd4ainteqEx
__ZNK4astd4ainteqEy
__ZNK4astd4aintgeERKS0_
__ZNK4astd4aintgeEi
__ZNK4astd4aintgeEj
__ZNK4astd4aintgeEl
__ZNK4astd4aintgeEm
__ZNK4astd4aintgeEx
__ZNK4astd4aintgeEy
__ZNK4astd4aintgtERKS0_
__ZNK4astd4aintgtEi
__ZNK4astd4aintgtEj
__ZNK4astd4aintgtEl
__ZNK4astd4aintgtEm
__ZNK4astd4aintgtEx
__ZNK4astd4aintgtEy
__ZNK4astd4aintleERKS0_
__ZNK4astd4aintleEi
__ZNK4astd4aintleEj
__ZNK4astd4aintleEl
__ZNK4astd4aintleEm
__ZNK4astd4aintleEx
__ZNK4astd4aintleEy
__ZNK4astd4aintltERKS0_
__ZNK4astd4aintltEi
__ZNK4astd4aintltEj
__ZNK4astd4aintltEl
__ZNK4astd4aintltEm
__ZNK4astd4aintltEx
__ZNK4astd4aintltEy
__ZNK4astd4aintmiERKS0_
__ZNK4astd4aintmiEi
__ZNK4astd4aintmiEj
__ZNK4astd4aintmiEl
__ZNK4astd4aintmiEm
__ZNK4astd4aintmiEx
__ZNK4astd4aintmiEy
__ZNK4astd4aintmlERKS0_
__ZNK4astd4aintmlEi
__ZNK4astd4aintmlEj
__ZNK4astd4aintmlEl
__ZNK4astd4aintmlEm
__ZNK4astd4aintmlEx
__ZNK4astd4aintmlEy
__ZNK4astd4aintneERKS0_
__ZNK4astd4aintneEi
__ZNK4astd4aintneEj
__ZNK4astd4aintneEl
__ZNK4astd4aintneEm
__ZNK4astd4aintneEx
__ZNK4astd4aintneEy
__ZNK4astd4aintplERKS0_
__ZNK4astd4aintplEi
__ZNK4astd4aintplEj
__ZNK4astd4aintplEl
__ZNK4astd4aintplEm
__ZNK4astd4aintplEx
__ZNK4astd4aintplEy
__ZNK4astd4aintrmERKS0_
__ZNK4astd4aintrmEi
__ZNK4astd4aintrmEj
__ZNK4astd4aintrmEl
__ZNK4astd4aintrmEm
__ZNK4astd4aintrmEx
__ZNK4astd4aintrmEy
